; Function Attrs: nounwind uwtable
define range(i32 0, 2) i32 @OSSL_PARAM_BLD_push_utf8_string(ptr noundef captures(none) %0, ptr noundef %1, ptr noundef %2, i64 noundef %3) local_unnamed_addr #0 {
  %5 = icmp eq i64 %3, 0
  br i1 %5, label %6, label %8

6:                                                ; preds = %4
  %7 = tail call i64 @strlen(ptr noundef nonnull dereferenceable(1) %2) #8
  br label %8

8:                                                ; preds = %6, %4
  %.011 = phi i64 [ %7, %6 ], [ %3, %4 ]
  %9 = tail call i32 @CRYPTO_secure_allocated(ptr noundef %2) #7
  %10 = tail call noalias ptr @CRYPTO_zalloc(i64 noundef 56, ptr noundef nonnull @.str, i32 noundef 55) #7
  %11 = icmp eq ptr %10, null
  br i1 %11, label %param_push.exit.thread, label %12

12:                                               ; preds = %8
  %13 = add i64 %.011, 1
  store ptr %1, ptr %10, align 8, !tbaa !14
  %14 = getelementptr inbounds nuw i8, ptr %10, i64 8
  store i32 4, ptr %14, align 8, !tbaa !18
  %15 = getelementptr inbounds nuw i8, ptr %10, i64 16
  store i64 %.011, ptr %15, align 8, !tbaa !19
  %16 = tail call i64 @ossl_param_bytes_to_blocks(i64 noundef %13) #7
  %17 = getelementptr inbounds nuw i8, ptr %10, i64 24
  store i64 %16, ptr %17, align 8, !tbaa !20
  %18 = getelementptr inbounds nuw i8, ptr %10, i64 12
  store i32 %9, ptr %18, align 4, !tbaa !21
  %.not.i = icmp eq i32 %9, 0
  br i1 %.not.i, label %23, label %19

19:                                               ; preds = %12
  %20 = getelementptr inbounds nuw i8, ptr %0, i64 8
  %21 = load i64, ptr %20, align 8, !tbaa !27
  %22 = add i64 %21, %16
  store i64 %22, ptr %20, align 8, !tbaa !27
  br label %26

23:                                               ; preds = %12
  %24 = load i64, ptr %0, align 8, !tbaa !22
  %25 = add i64 %24, %16
  store i64 %25, ptr %0, align 8, !tbaa !22
  br label %26

26:                                               ; preds = %23, %19
  %27 = getelementptr inbounds nuw i8, ptr %0, i64 16
  %28 = load ptr, ptr %27, align 8, !tbaa !3
  %29 = tail call i32 @OPENSSL_sk_push(ptr noundef %28, ptr noundef nonnull %10) #7
  %30 = icmp slt i32 %29, 1
  br i1 %30, label %31, label %param_push.exit

31:                                               ; preds = %26
  tail call void @CRYPTO_free(ptr noundef nonnull %10, ptr noundef nonnull @.str, i32 noundef 68) #7
  br label %param_push.exit.thread

param_push.exit:                                  ; preds = %26
  %32 = getelementptr inbounds nuw i8, ptr %10, i64 40
  store ptr %2, ptr %32, align 8, !tbaa !28
  br label %param_push.exit.thread

param_push.exit.thread:                           ; preds = %31, %8, %param_push.exit
  %.0 = phi i32 [ 1, %param_push.exit ], [ 0, %8 ], [ 0, %31 ]
  ret i32 %.0
}